target datalayout = "e-m:e-p270:32:32-p271:32:32-p272:64:64-i64:64-i128:128-f80:128-n8:16:32:64-S128"
target triple = "x86_64-pc-linux-gnu"

%struct.Vec_Int_t_ = type { i32, i32, ptr }
%struct.Vec_Wrd_t_ = type { i32, i32, ptr }

; Function Attrs: inlinehint nounwind uwtable
define internal void @Vec_IntWriteEntry(ptr noundef %0, i32 noundef %1, i32 noundef %2) #3 {
  %4 = alloca ptr, align 8
  %5 = alloca i32, align 4
  %6 = alloca i32, align 4
  store ptr %0, ptr %4, align 8, !tbaa !19
  store i32 %1, ptr %5, align 4, !tbaa !8
  store i32 %2, ptr %6, align 4, !tbaa !8
  %7 = load i32, ptr %6, align 4, !tbaa !8
  %8 = load ptr, ptr %4, align 8, !tbaa !19
  %9 = getelementptr inbounds nuw %struct.Vec_Int_t_, ptr %8, i32 0, i32 2
  %10 = load ptr, ptr %9, align 8, !tbaa !29
  %11 = load i32, ptr %5, align 4, !tbaa !8
  %12 = sext i32 %11 to i64
  %13 = getelementptr inbounds i32, ptr %10, i64 %12
  store i32 %7, ptr %13, align 4, !tbaa !8
  ret void
}

; Function Attrs: inlinehint nounwind uwtable
define internal i32 @Vec_IntEntry(ptr noundef %0, i32 noundef %1) #3 {
  %3 = alloca ptr, align 8
  %4 = alloca i32, align 4
  store ptr %0, ptr %3, align 8, !tbaa !19
  store i32 %1, ptr %4, align 4, !tbaa !8
  %5 = load ptr, ptr %3, align 8, !tbaa !19
  %6 = getelementptr inbounds nuw %struct.Vec_Int_t_, ptr %5, i32 0, i32 2
  %7 = load ptr, ptr %6, align 8, !tbaa !29
  %8 = load i32, ptr %4, align 4, !tbaa !8
  %9 = sext i32 %8 to i64
  %10 = getelementptr inbounds i32, ptr %7, i64 %9
  %11 = load i32, ptr %10, align 4, !tbaa !8
  ret i32 %11
}

; Function Attrs: inlinehint nounwind uwtable
define internal i32 @Vec_IntSize(ptr noundef %0) #3 {
  %2 = alloca ptr, align 8
  store ptr %0, ptr %2, align 8, !tbaa !19
  %3 = load ptr, ptr %2, align 8, !tbaa !19
  %4 = getelementptr inbounds nuw %struct.Vec_Int_t_, ptr %3, i32 0, i32 1
  %5 = load i32, ptr %4, align 4, !tbaa !26
  ret i32 %5
}

; Function Attrs: inlinehint nounwind uwtable
define internal void @Vec_IntClear(ptr noundef %0) #3 {
  %2 = alloca ptr, align 8
  store ptr %0, ptr %2, align 8, !tbaa !19
  %3 = load ptr, ptr %2, align 8, !tbaa !19
  %4 = getelementptr inbounds nuw %struct.Vec_Int_t_, ptr %3, i32 0, i32 1
  store i32 0, ptr %4, align 4, !tbaa !26
  ret void
}

; Function Attrs: inlinehint nounwind uwtable
define internal void @Vec_WrdClear(ptr noundef %0) #3 {
  %2 = alloca ptr, align 8
  store ptr %0, ptr %2, align 8, !tbaa !37
  %3 = load ptr, ptr %2, align 8, !tbaa !37
  %4 = getelementptr inbounds nuw %struct.Vec_Wrd_t_, ptr %3, i32 0, i32 1
  store i32 0, ptr %4, align 4, !tbaa !42
  ret void
}

; Function Attrs: nounwind uwtable
define i32 @Abc_TtGetCM6(ptr noundef %0, i32 noundef %1, i32 noundef %2, ptr noundef %3, ptr noundef %4, ptr noundef %5) #0 {
  %7 = alloca ptr, align 8
  %8 = alloca i32, align 4
  %9 = alloca i32, align 4
  %10 = alloca ptr, align 8
  %11 = alloca ptr, align 8
  %12 = alloca ptr, align 8
  %13 = alloca i32, align 4
  %14 = alloca i32, align 4
  %15 = alloca i32, align 4
  %16 = alloca i32, align 4
  store ptr %0, ptr %7, align 8, !tbaa !3
  store i32 %1, ptr %8, align 4, !tbaa !8
  store i32 %2, ptr %9, align 4, !tbaa !8
  store ptr %3, ptr %10, align 8, !tbaa !19
  store ptr %4, ptr %11, align 8, !tbaa !37
  store ptr %5, ptr %12, align 8, !tbaa !19
  call void @llvm.lifetime.start.p0(i64 4, ptr %13) #12
  call void @llvm.lifetime.start.p0(i64 4, ptr %14) #12
  call void @llvm.lifetime.start.p0(i64 4, ptr %15) #12
  %17 = load i32, ptr %8, align 4, !tbaa !8
  %18 = load i32, ptr %9, align 4, !tbaa !8
  %19 = sub nsw i32 %17, %18
  %20 = shl i32 1, %19
  store i32 %20, ptr %15, align 4, !tbaa !8
  call void @llvm.lifetime.start.p0(i64 4, ptr %16) #12
  %21 = load i32, ptr %9, align 4, !tbaa !8
  %22 = sub nsw i32 %21, 6
  %23 = shl i32 1, %22
  store i32 %23, ptr %16, align 4, !tbaa !8
  %24 = load ptr, ptr %11, align 8, !tbaa !37
  call void @Vec_WrdClear(ptr noundef %24)
  %25 = load ptr, ptr %12, align 8, !tbaa !19
  call void @Vec_IntClear(ptr noundef %25)
  store i32 0, ptr %13, align 4, !tbaa !8
  br label %26

26:                                               ; preds = %42, %6
  %27 = load i32, ptr %13, align 4, !tbaa !8
  %28 = load i32, ptr %15, align 4, !tbaa !8
  %29 = icmp slt i32 %27, %28
  br i1 %29, label %30, label %45

30:                                               ; preds = %26
  %31 = load ptr, ptr %7, align 8, !tbaa !3
  %32 = load i32, ptr %13, align 4, !tbaa !8
  %33 = load i32, ptr %16, align 4, !tbaa !8
  %34 = mul nsw i32 %32, %33
  %35 = sext i32 %34 to i64
  %36 = getelementptr inbounds i64, ptr %31, i64 %35
  %37 = load i32, ptr %16, align 4, !tbaa !8
  %38 = load ptr, ptr %10, align 8, !tbaa !19
  %39 = load ptr, ptr %11, align 8, !tbaa !37
  %40 = load ptr, ptr %12, align 8, !tbaa !19
  %41 = call i32 @Abc_TtHashLookup6(ptr noundef %36, i32 noundef %37, ptr noundef %38, ptr noundef %39, ptr noundef %40)
  br label %42

42:                                               ; preds = %30
  %43 = load i32, ptr %13, align 4, !tbaa !8
  %44 = add nsw i32 %43, 1
  store i32 %44, ptr %13, align 4, !tbaa !8
  br label %26, !llvm.loop !48

45:                                               ; preds = %26
  store i32 0, ptr %13, align 4, !tbaa !8
  br label %46

46:                                               ; preds = %60, %45
  %47 = load i32, ptr %13, align 4, !tbaa !8
  %48 = load ptr, ptr %12, align 8, !tbaa !19
  %49 = call i32 @Vec_IntSize(ptr noundef %48)
  %50 = icmp slt i32 %47, %49
  br i1 %50, label %51, label %55

51:                                               ; preds = %46
  %52 = load ptr, ptr %12, align 8, !tbaa !19
  %53 = load i32, ptr %13, align 4, !tbaa !8
  %54 = call i32 @Vec_IntEntry(ptr noundef %52, i32 noundef %53)
  store i32 %54, ptr %14, align 4, !tbaa !8
  br label %55

55:                                               ; preds = %51, %46
  %56 = phi i1 [ false, %46 ], [ true, %51 ]
  br i1 %56, label %57, label %63

57:                                               ; preds = %55
  %58 = load ptr, ptr %10, align 8, !tbaa !19
  %59 = load i32, ptr %14, align 4, !tbaa !8
  call void @Vec_IntWriteEntry(ptr noundef %58, i32 noundef %59, i32 noundef -1)
  br label %60

60:                                               ; preds = %57
  %61 = load i32, ptr %13, align 4, !tbaa !8
  %62 = add nsw i32 %61, 1
  store i32 %62, ptr %13, align 4, !tbaa !8
  br label %46, !llvm.loop !49

63:                                               ; preds = %55
  %64 = load ptr, ptr %12, align 8, !tbaa !19
  %65 = call i32 @Vec_IntSize(ptr noundef %64)
  call void @llvm.lifetime.end.p0(i64 4, ptr %16) #12
  call void @llvm.lifetime.end.p0(i64 4, ptr %15) #12
  call void @llvm.lifetime.end.p0(i64 4, ptr %14) #12
  call void @llvm.lifetime.end.p0(i64 4, ptr %13) #12
  ret i32 %65
}