; Function Attrs: nounwind uwtable
define i32 @Abc_TtGetCM6(ptr noundef readonly captures(none) %0, i32 noundef %1, i32 noundef %2, ptr noundef readonly captures(none) %3, ptr noundef captures(none) initializes((4, 8)) %4, ptr noundef captures(none) initializes((4, 8)) %5) local_unnamed_addr #3 {
  %7 = sub nsw i32 %1, %2
  %8 = add nsw i32 %2, -6
  %9 = shl nuw i32 1, %8
  %10 = getelementptr inbounds nuw i8, ptr %4, i64 4
  store i32 0, ptr %10, align 4, !tbaa !32
  %11 = getelementptr inbounds nuw i8, ptr %5, i64 4
  store i32 0, ptr %11, align 4, !tbaa !14
  %.not = icmp eq i32 %7, 31
  br i1 %.not, label %.critedge, label %.lr.ph.preheader

.lr.ph.preheader:                                 ; preds = %6
  %12 = shl nuw nsw i32 1, %7
  br label %.lr.ph

.preheader:                                       ; preds = %.lr.ph
  %.val2226.pre = load i32, ptr %11, align 4, !tbaa !14
  %13 = icmp sgt i32 %.val2226.pre, 0
  br i1 %13, label %.lr.ph28, label %.critedge

.lr.ph28:                                         ; preds = %.preheader
  %14 = getelementptr i8, ptr %5, i64 8
  %.val23 = load ptr, ptr %14, align 8, !tbaa !18
  %15 = getelementptr i8, ptr %3, i64 8
  %.val24 = load ptr, ptr %15, align 8, !tbaa !18
  br label %21

.lr.ph:                                           ; preds = %.lr.ph.preheader, %.lr.ph
  %.025 = phi i32 [ %20, %.lr.ph ], [ 0, %.lr.ph.preheader ]
  %16 = shl i32 %.025, %8
  %17 = sext i32 %16 to i64
  %18 = getelementptr inbounds i64, ptr %0, i64 %17
  %19 = tail call i32 @Abc_TtHashLookup6(ptr noundef %18, i32 noundef %9, ptr noundef %3, ptr noundef %4, ptr noundef %5)
  %20 = add nuw nsw i32 %.025, 1
  %exitcond.not = icmp eq i32 %20, %12
  br i1 %exitcond.not, label %.preheader, label %.lr.ph, !llvm.loop !38

21:                                               ; preds = %.lr.ph28, %21
  %indvars.iv = phi i64 [ 0, %.lr.ph28 ], [ %indvars.iv.next, %21 ]
  %22 = getelementptr inbounds nuw i32, ptr %.val23, i64 %indvars.iv
  %23 = load i32, ptr %22, align 4, !tbaa !7
  %24 = sext i32 %23 to i64
  %25 = getelementptr inbounds i32, ptr %.val24, i64 %24
  store i32 -1, ptr %25, align 4, !tbaa !7
  %indvars.iv.next = add nuw nsw i64 %indvars.iv, 1
  %.val22 = load i32, ptr %11, align 4, !tbaa !14
  %26 = sext i32 %.val22 to i64
  %27 = icmp slt i64 %indvars.iv.next, %26
  br i1 %27, label %21, label %.critedge, !llvm.loop !39

.critedge:                                        ; preds = %21, %6, %.preheader
  %.val22.lcssa = phi i32 [ %.val2226.pre, %.preheader ], [ 0, %6 ], [ %.val22, %21 ]
  ret i32 %.val22.lcssa
}